target datalayout = "e-m:e-p270:32:32-p271:32:32-p272:64:64-i64:64-i128:128-f80:128-n8:16:32:64-S128"
target triple = "x86_64-pc-linux-gnu"

%struct.file_ctx_st = type { ptr, ptr, i32, %union.anon, i32 }
%union.anon = type { %struct.anon.1 }
%struct.anon.1 = type { ptr, i32, [9 x i8], ptr, i32 }
%struct.anon.0 = type { ptr, ptr, ptr, ptr }
%struct.ossl_param_st = type { ptr, i32, ptr, i64, i64 }

@.str.4 = private unnamed_addr constant [60 x i8] c"../openssl/providers/implementations/storemgmt/file_store.c\00", align 1
@.str.9 = private unnamed_addr constant [11 x i8] c"properties\00", align 1
@.str.10 = private unnamed_addr constant [7 x i8] c"expect\00", align 1
@.str.11 = private unnamed_addr constant [8 x i8] c"subject\00", align 1
@.str.12 = private unnamed_addr constant [11 x i8] c"input-type\00", align 1
@__func__.file_set_ctx_params = private unnamed_addr constant [20 x i8] c"file_set_ctx_params\00", align 1
@.str.13 = private unnamed_addr constant [6 x i8] c"%08lx\00", align 1

; Function Attrs: inlinehint nounwind uwtable
define internal i32 @ossl_param_is_empty(ptr noundef %0) #5 {
  %2 = alloca ptr, align 8
  store ptr %0, ptr %2, align 8, !tbaa !27
  %3 = load ptr, ptr %2, align 8, !tbaa !27
  %4 = icmp eq ptr %3, null
  br i1 %4, label %10, label %5

5:                                                ; preds = %1
  %6 = load ptr, ptr %2, align 8, !tbaa !27
  %7 = getelementptr inbounds nuw %struct.ossl_param_st, ptr %6, i32 0, i32 0
  %8 = load ptr, ptr %7, align 8, !tbaa !35
  %9 = icmp eq ptr %8, null
  br label %10

10:                                               ; preds = %5, %1
  %11 = phi i1 [ true, %1 ], [ %9, %5 ]
  %12 = zext i1 %11 to i32
  ret i32 %12
}

; Function Attrs: nounwind uwtable
define internal i32 @file_set_ctx_params(ptr noundef %0, ptr noundef %1) #0 {
  %3 = alloca i32, align 4
  %4 = alloca ptr, align 8
  %5 = alloca ptr, align 8
  %6 = alloca ptr, align 8
  %7 = alloca ptr, align 8
  %8 = alloca i32, align 4
  %9 = alloca ptr, align 8
  %10 = alloca i64, align 8
  %11 = alloca ptr, align 8
  %12 = alloca i64, align 8
  %13 = alloca i32, align 4
  store ptr %0, ptr %4, align 8, !tbaa !3
  store ptr %1, ptr %5, align 8, !tbaa !27
  call void @llvm.lifetime.start.p0(i64 8, ptr %6) #8
  %14 = load ptr, ptr %4, align 8, !tbaa !3
  store ptr %14, ptr %6, align 8, !tbaa !9
  call void @llvm.lifetime.start.p0(i64 8, ptr %7) #8
  %15 = load ptr, ptr %5, align 8, !tbaa !27
  %16 = call i32 @ossl_param_is_empty(ptr noundef %15)
  %17 = icmp ne i32 %16, 0
  br i1 %17, label %18, label %19

18:                                               ; preds = %2
  store i32 1, ptr %3, align 4
  store i32 1, ptr %8, align 4
  br label %121

19:                                               ; preds = %2
  %20 = load ptr, ptr %6, align 8, !tbaa !9
  %21 = getelementptr inbounds nuw %struct.file_ctx_st, ptr %20, i32 0, i32 2
  %22 = load i32, ptr %21, align 8, !tbaa !29
  %23 = icmp ne i32 %22, 1
  br i1 %23, label %24, label %67

24:                                               ; preds = %19
  %25 = load ptr, ptr %5, align 8, !tbaa !27
  %26 = call ptr @OSSL_PARAM_locate_const(ptr noundef %25, ptr noundef @.str.9)
  store ptr %26, ptr %7, align 8, !tbaa !27
  %27 = load ptr, ptr %7, align 8, !tbaa !27
  %28 = icmp ne ptr %27, null
  br i1 %28, label %29, label %45

29:                                               ; preds = %24
  %30 = load ptr, ptr %6, align 8, !tbaa !9
  %31 = getelementptr inbounds nuw %struct.file_ctx_st, ptr %30, i32 0, i32 3
  %32 = getelementptr inbounds nuw %struct.anon.0, ptr %31, i32 0, i32 3
  %33 = load ptr, ptr %32, align 8, !tbaa !16
  call void @CRYPTO_free(ptr noundef %33, ptr noundef @.str.4, i32 noundef 331)
  %34 = load ptr, ptr %6, align 8, !tbaa !9
  %35 = getelementptr inbounds nuw %struct.file_ctx_st, ptr %34, i32 0, i32 3
  %36 = getelementptr inbounds nuw %struct.anon.0, ptr %35, i32 0, i32 3
  store ptr null, ptr %36, align 8, !tbaa !16
  %37 = load ptr, ptr %7, align 8, !tbaa !27
  %38 = load ptr, ptr %6, align 8, !tbaa !9
  %39 = getelementptr inbounds nuw %struct.file_ctx_st, ptr %38, i32 0, i32 3
  %40 = getelementptr inbounds nuw %struct.anon.0, ptr %39, i32 0, i32 3
  %41 = call i32 @OSSL_PARAM_get_utf8_string(ptr noundef %37, ptr noundef %40, i64 noundef 0)
  %42 = icmp ne i32 %41, 0
  br i1 %42, label %44, label %43

43:                                               ; preds = %29
  store i32 0, ptr %3, align 4
  store i32 1, ptr %8, align 4
  br label %121

44:                                               ; preds = %29
  br label %45

45:                                               ; preds = %44, %24
  %46 = load ptr, ptr %5, align 8, !tbaa !27
  %47 = call ptr @OSSL_PARAM_locate_const(ptr noundef %46, ptr noundef @.str.12)
  store ptr %47, ptr %7, align 8, !tbaa !27
  %48 = load ptr, ptr %7, align 8, !tbaa !27
  %49 = icmp ne ptr %48, null
  br i1 %49, label %50, label %66

50:                                               ; preds = %45
  %51 = load ptr, ptr %6, align 8, !tbaa !9
  %52 = getelementptr inbounds nuw %struct.file_ctx_st, ptr %51, i32 0, i32 3
  %53 = getelementptr inbounds nuw %struct.anon.0, ptr %52, i32 0, i32 2
  %54 = load ptr, ptr %53, align 8, !tbaa !16
  call void @CRYPTO_free(ptr noundef %54, ptr noundef @.str.4, i32 noundef 338)
  %55 = load ptr, ptr %6, align 8, !tbaa !9
  %56 = getelementptr inbounds nuw %struct.file_ctx_st, ptr %55, i32 0, i32 3
  %57 = getelementptr inbounds nuw %struct.anon.0, ptr %56, i32 0, i32 2
  store ptr null, ptr %57, align 8, !tbaa !16
  %58 = load ptr, ptr %7, align 8, !tbaa !27
  %59 = load ptr, ptr %6, align 8, !tbaa !9
  %60 = getelementptr inbounds nuw %struct.file_ctx_st, ptr %59, i32 0, i32 3
  %61 = getelementptr inbounds nuw %struct.anon.0, ptr %60, i32 0, i32 2
  %62 = call i32 @OSSL_PARAM_get_utf8_string(ptr noundef %58, ptr noundef %61, i64 noundef 0)
  %63 = icmp ne i32 %62, 0
  br i1 %63, label %65, label %64

64:                                               ; preds = %50
  store i32 0, ptr %3, align 4
  store i32 1, ptr %8, align 4
  br label %121

65:                                               ; preds = %50
  br label %66

66:                                               ; preds = %65, %45
  br label %67

67:                                               ; preds = %66, %19
  %68 = load ptr, ptr %5, align 8, !tbaa !27
  %69 = call ptr @OSSL_PARAM_locate_const(ptr noundef %68, ptr noundef @.str.10)
  store ptr %69, ptr %7, align 8, !tbaa !27
  %70 = load ptr, ptr %7, align 8, !tbaa !27
  %71 = icmp ne ptr %70, null
  br i1 %71, label %72, label %79

72:                                               ; preds = %67
  %73 = load ptr, ptr %7, align 8, !tbaa !27
  %74 = load ptr, ptr %6, align 8, !tbaa !9
  %75 = getelementptr inbounds nuw %struct.file_ctx_st, ptr %74, i32 0, i32 4
  %76 = call i32 @OSSL_PARAM_get_int(ptr noundef %73, ptr noundef %75)
  %77 = icmp ne i32 %76, 0
  br i1 %77, label %79, label %78

78:                                               ; preds = %72
  store i32 0, ptr %3, align 4
  store i32 1, ptr %8, align 4
  br label %121

79:                                               ; preds = %72, %67
  %80 = load ptr, ptr %5, align 8, !tbaa !27
  %81 = call ptr @OSSL_PARAM_locate_const(ptr noundef %80, ptr noundef @.str.11)
  store ptr %81, ptr %7, align 8, !tbaa !27
  %82 = load ptr, ptr %7, align 8, !tbaa !27
  %83 = icmp ne ptr %82, null
  br i1 %83, label %84, label %120

84:                                               ; preds = %79
  call void @llvm.lifetime.start.p0(i64 8, ptr %9) #8
  store ptr null, ptr %9, align 8, !tbaa !7
  call void @llvm.lifetime.start.p0(i64 8, ptr %10) #8
  store i64 0, ptr %10, align 8, !tbaa !11
  call void @llvm.lifetime.start.p0(i64 8, ptr %11) #8
  call void @llvm.lifetime.start.p0(i64 8, ptr %12) #8
  call void @llvm.lifetime.start.p0(i64 4, ptr %13) #8
  %85 = load ptr, ptr %6, align 8, !tbaa !9
  %86 = getelementptr inbounds nuw %struct.file_ctx_st, ptr %85, i32 0, i32 2
  %87 = load i32, ptr %86, align 8, !tbaa !29
  %88 = icmp ne i32 %87, 1
  br i1 %88, label %89, label %90

89:                                               ; preds = %84
  call void @ERR_new()
  call void @ERR_set_debug(ptr noundef @.str.4, i32 noundef 357, ptr noundef @__func__.file_set_ctx_params)
  call void (i32, i32, ptr, ...) @ERR_set_error(i32 noundef 57, i32 noundef 222, ptr noundef null)
  store i32 0, ptr %3, align 4
  store i32 1, ptr %8, align 4
  br label %117

90:                                               ; preds = %84
  %91 = load ptr, ptr %7, align 8, !tbaa !27
  %92 = call i32 @OSSL_PARAM_get_octet_string_ptr(ptr noundef %91, ptr noundef %9, ptr noundef %10)
  %93 = icmp ne i32 %92, 0
  br i1 %93, label %94, label %98

94:                                               ; preds = %90
  %95 = load i64, ptr %10, align 8, !tbaa !11
  %96 = call ptr @d2i_X509_NAME(ptr noundef null, ptr noundef %9, i64 noundef %95)
  store ptr %96, ptr %11, align 8, !tbaa !31
  %97 = icmp eq ptr %96, null
  br i1 %97, label %98, label %99

98:                                               ; preds = %94, %90
  store i32 0, ptr %3, align 4
  store i32 1, ptr %8, align 4
  br label %117

99:                                               ; preds = %94
  %100 = load ptr, ptr %11, align 8, !tbaa !31
  %101 = load ptr, ptr %6, align 8, !tbaa !9
  %102 = getelementptr inbounds nuw %struct.file_ctx_st, ptr %101, i32 0, i32 0
  %103 = load ptr, ptr %102, align 8, !tbaa !33
  %104 = call ptr @ossl_prov_ctx_get0_libctx(ptr noundef %103)
  %105 = call i64 @X509_NAME_hash_ex(ptr noundef %100, ptr noundef %104, ptr noundef null, ptr noundef %13)
  store i64 %105, ptr %12, align 8, !tbaa !11
  %106 = load ptr, ptr %6, align 8, !tbaa !9
  %107 = getelementptr inbounds nuw %struct.file_ctx_st, ptr %106, i32 0, i32 3
  %108 = getelementptr inbounds nuw %struct.anon.1, ptr %107, i32 0, i32 2
  %109 = getelementptr inbounds [9 x i8], ptr %108, i64 0, i64 0
  %110 = load i64, ptr %12, align 8, !tbaa !11
  %111 = call i32 (ptr, i64, ptr, ...) @BIO_snprintf(ptr noundef %109, i64 noundef 9, ptr noundef @.str.13, i64 noundef %110)
  %112 = load ptr, ptr %11, align 8, !tbaa !31
  call void @X509_NAME_free(ptr noundef %112)
  %113 = load i32, ptr %13, align 4, !tbaa !17
  %114 = icmp eq i32 %113, 0
  br i1 %114, label %115, label %116

115:                                              ; preds = %99
  store i32 0, ptr %3, align 4
  store i32 1, ptr %8, align 4
  br label %117

116:                                              ; preds = %99
  store i32 0, ptr %8, align 4
  br label %117

117:                                              ; preds = %116, %115, %98, %89
  call void @llvm.lifetime.end.p0(i64 4, ptr %13) #8
  call void @llvm.lifetime.end.p0(i64 8, ptr %12) #8
  call void @llvm.lifetime.end.p0(i64 8, ptr %11) #8
  call void @llvm.lifetime.end.p0(i64 8, ptr %10) #8
  call void @llvm.lifetime.end.p0(i64 8, ptr %9) #8
  %118 = load i32, ptr %8, align 4
  switch i32 %118, label %121 [
    i32 0, label %119
  ]

119:                                              ; preds = %117
  br label %120

120:                                              ; preds = %119, %79
  store i32 1, ptr %3, align 4
  store i32 1, ptr %8, align 4
  br label %121

121:                                              ; preds = %120, %117, %78, %64, %43, %18
  call void @llvm.lifetime.end.p0(i64 8, ptr %7) #8
  call void @llvm.lifetime.end.p0(i64 8, ptr %6) #8
  %122 = load i32, ptr %3, align 4
  ret i32 %122
}