; Function Attrs: nounwind uwtable
define internal range(i32 0, 2) i32 @file_set_ctx_params(ptr noundef %0, ptr noundef %1) #0 {
  %3 = alloca ptr, align 8
  %4 = alloca i64, align 8
  %5 = alloca i32, align 4
  %6 = icmp eq ptr %1, null
  br i1 %6, label %ossl_param_is_empty.exit.thread, label %ossl_param_is_empty.exit

ossl_param_is_empty.exit:                         ; preds = %2
  %7 = load ptr, ptr %1, align 8, !tbaa !21
  %.not = icmp eq ptr %7, null
  br i1 %.not, label %ossl_param_is_empty.exit.thread, label %8

8:                                                ; preds = %ossl_param_is_empty.exit
  %9 = getelementptr inbounds nuw i8, ptr %0, i64 16
  %10 = load i32, ptr %9, align 8, !tbaa !18
  %.not35 = icmp eq i32 %10, 1
  br i1 %.not35, label %23, label %11

11:                                               ; preds = %8
  %12 = tail call ptr @OSSL_PARAM_locate_const(ptr noundef nonnull %1, ptr noundef nonnull @.str.9) #8
  %.not36 = icmp eq ptr %12, null
  br i1 %.not36, label %17, label %13

13:                                               ; preds = %11
  %14 = getelementptr inbounds nuw i8, ptr %0, i64 48
  %15 = load ptr, ptr %14, align 8, !tbaa !10
  tail call void @CRYPTO_free(ptr noundef %15, ptr noundef nonnull @.str.4, i32 noundef 331) #8
  store ptr null, ptr %14, align 8, !tbaa !10
  %16 = tail call i32 @OSSL_PARAM_get_utf8_string(ptr noundef nonnull %12, ptr noundef nonnull %14, i64 noundef 0) #8
  %.not37 = icmp eq i32 %16, 0
  br i1 %.not37, label %ossl_param_is_empty.exit.thread, label %17

17:                                               ; preds = %13, %11
  %18 = tail call ptr @OSSL_PARAM_locate_const(ptr noundef nonnull %1, ptr noundef nonnull @.str.12) #8
  %.not38 = icmp eq ptr %18, null
  br i1 %.not38, label %23, label %19

19:                                               ; preds = %17
  %20 = getelementptr inbounds nuw i8, ptr %0, i64 40
  %21 = load ptr, ptr %20, align 8, !tbaa !10
  tail call void @CRYPTO_free(ptr noundef %21, ptr noundef nonnull @.str.4, i32 noundef 338) #8
  store ptr null, ptr %20, align 8, !tbaa !10
  %22 = tail call i32 @OSSL_PARAM_get_utf8_string(ptr noundef nonnull %18, ptr noundef nonnull %20, i64 noundef 0) #8
  %.not39 = icmp eq i32 %22, 0
  br i1 %.not39, label %ossl_param_is_empty.exit.thread, label %23

23:                                               ; preds = %17, %19, %8
  %24 = tail call ptr @OSSL_PARAM_locate_const(ptr noundef nonnull %1, ptr noundef nonnull @.str.10) #8
  %.not40 = icmp eq ptr %24, null
  br i1 %.not40, label %28, label %25

25:                                               ; preds = %23
  %26 = getelementptr inbounds nuw i8, ptr %0, i64 64
  %27 = tail call i32 @OSSL_PARAM_get_int(ptr noundef nonnull %24, ptr noundef nonnull %26) #8
  %.not41 = icmp eq i32 %27, 0
  br i1 %.not41, label %ossl_param_is_empty.exit.thread, label %28

28:                                               ; preds = %25, %23
  %29 = tail call ptr @OSSL_PARAM_locate_const(ptr noundef nonnull %1, ptr noundef nonnull @.str.11) #8
  %.not42 = icmp eq ptr %29, null
  br i1 %.not42, label %46, label %30

30:                                               ; preds = %28
  call void @llvm.lifetime.start.p0(i64 8, ptr nonnull %3) #8
  store ptr null, ptr %3, align 8, !tbaa !23
  call void @llvm.lifetime.start.p0(i64 8, ptr nonnull %4) #8
  store i64 0, ptr %4, align 8, !tbaa !24
  call void @llvm.lifetime.start.p0(i64 4, ptr nonnull %5) #8
  %31 = load i32, ptr %9, align 8, !tbaa !18
  %.not43 = icmp eq i32 %31, 1
  br i1 %.not43, label %33, label %32

32:                                               ; preds = %30
  tail call void @ERR_new() #8
  tail call void @ERR_set_debug(ptr noundef nonnull @.str.4, i32 noundef 357, ptr noundef nonnull @__func__.file_set_ctx_params) #8
  tail call void (i32, i32, ptr, ...) @ERR_set_error(i32 noundef 57, i32 noundef 222, ptr noundef null) #8
  br label %.critedge

33:                                               ; preds = %30
  %34 = call i32 @OSSL_PARAM_get_octet_string_ptr(ptr noundef nonnull %29, ptr noundef nonnull %3, ptr noundef nonnull %4) #8
  %.not44 = icmp eq i32 %34, 0
  br i1 %.not44, label %.critedge, label %35

35:                                               ; preds = %33
  %36 = load i64, ptr %4, align 8, !tbaa !24
  %37 = call ptr @d2i_X509_NAME(ptr noundef null, ptr noundef nonnull %3, i64 noundef %36) #8
  %38 = icmp eq ptr %37, null
  br i1 %38, label %.critedge, label %39

39:                                               ; preds = %35
  %40 = load ptr, ptr %0, align 8, !tbaa !20
  %41 = call ptr @ossl_prov_ctx_get0_libctx(ptr noundef %40) #8
  %42 = call i64 @X509_NAME_hash_ex(ptr noundef nonnull %37, ptr noundef %41, ptr noundef null, ptr noundef nonnull %5) #8
  %43 = getelementptr inbounds nuw i8, ptr %0, i64 36
  %44 = call i32 (ptr, i64, ptr, ...) @BIO_snprintf(ptr noundef nonnull %43, i64 noundef 9, ptr noundef nonnull @.str.13, i64 noundef %42) #8
  call void @X509_NAME_free(ptr noundef nonnull %37) #8
  %45 = load i32, ptr %5, align 4, !tbaa !11
  %.not46 = icmp eq i32 %45, 0
  call void @llvm.lifetime.end.p0(i64 4, ptr nonnull %5) #8
  call void @llvm.lifetime.end.p0(i64 8, ptr nonnull %4) #8
  call void @llvm.lifetime.end.p0(i64 8, ptr nonnull %3) #8
  br i1 %.not46, label %ossl_param_is_empty.exit.thread, label %46

46:                                               ; preds = %39, %28
  br label %ossl_param_is_empty.exit.thread

.critedge:                                        ; preds = %33, %35, %32
  call void @llvm.lifetime.end.p0(i64 4, ptr nonnull %5) #8
  call void @llvm.lifetime.end.p0(i64 8, ptr nonnull %4) #8
  call void @llvm.lifetime.end.p0(i64 8, ptr nonnull %3) #8
  br label %ossl_param_is_empty.exit.thread

ossl_param_is_empty.exit.thread:                  ; preds = %2, %.critedge, %25, %19, %13, %ossl_param_is_empty.exit, %39, %46
  %.0 = phi i32 [ 1, %46 ], [ 0, %39 ], [ 1, %ossl_param_is_empty.exit ], [ 0, %13 ], [ 0, %19 ], [ 0, %25 ], [ 0, %.critedge ], [ 1, %2 ]
  ret i32 %.0
}